; Function Attrs: mustprogress uwtable
define dso_local void @_ZN10V3ParseImp17lexTimescaleParseEP8FileLinePKc(ptr noundef nonnull writeonly align 8 captures(none) dereferenceable(528) initializes((520, 521)) %0, ptr noundef %1, ptr noundef %2) #8 align 2 {
  %4 = alloca %class.VTimescale, align 1
  %5 = alloca %class.VTimescale, align 1
  call void @llvm.lifetime.start.p0(i64 1, ptr nonnull %4) #26
  store i8 18, ptr %4, align 1, !tbaa !281
  call void @llvm.lifetime.start.p0(i64 1, ptr nonnull %5) #26
  store i8 18, ptr %5, align 1, !tbaa !281
  call void @_ZN10VTimescale12parseSlashedEP8FileLinePKcRS_S4_b(ptr noundef %1, ptr noundef %2, ptr noundef nonnull align 1 dereferenceable(1) %4, ptr noundef nonnull align 1 dereferenceable(1) %5, i1 noundef zeroext false)
  %6 = call i8 @_ZNK9V3Options15timeComputeUnitERK10VTimescale(ptr noundef nonnull align 8 dereferenceable(1720) getelementptr inbounds nuw (i8, ptr @v3Global, i64 176), ptr noundef nonnull align 1 dereferenceable(1) %4)
  %7 = getelementptr inbounds nuw i8, ptr %0, i64 520
  store i8 %6, ptr %7, align 8, !tbaa !282
  %8 = load ptr, ptr @v3Global, align 8, !tbaa !212
  call void @_ZN10AstNetlist18timeprecisionMergeEP8FileLineRK10VTimescale(ptr noundef nonnull align 8 dereferenceable(248) %8, ptr noundef %1, ptr noundef nonnull align 1 dereferenceable(1) %5)
  call void @llvm.lifetime.end.p0(i64 1, ptr nonnull %5) #26
  call void @llvm.lifetime.end.p0(i64 1, ptr nonnull %4) #26
  ret void
}